target datalayout = "e-m:e-p270:32:32-p271:32:32-p272:64:64-i64:64-i128:128-f80:128-n8:16:32:64-S128"
target triple = "x86_64-pc-linux-gnu"

%struct.HysteresisContext = type { ptr, %struct.FFFrameSync, i32, i32, [4 x i32], [4 x i32], i32, i32, ptr, ptr, i32, ptr }
%struct.FFFrameSync = type { ptr, ptr, i32, %struct.AVRational, i64, ptr, ptr, i32, i32, i8, i8, ptr, i32, i32, i32, i32 }
%struct.AVRational = type { i32, i32 }

; Function Attrs: nounwind uwtable
define internal void @pop(ptr noundef %0, ptr noundef %1, ptr noundef %2) #0 {
  %4 = alloca ptr, align 8
  %5 = alloca ptr, align 8
  %6 = alloca ptr, align 8
  %7 = alloca i32, align 4
  store ptr %0, ptr %4, align 8, !tbaa !22
  store ptr %1, ptr %5, align 8, !tbaa !75
  store ptr %2, ptr %6, align 8, !tbaa !75
  call void @llvm.lifetime.start.p0(i64 4, ptr %7) #9
  %8 = load ptr, ptr %4, align 8, !tbaa !22
  %9 = getelementptr inbounds nuw %struct.HysteresisContext, ptr %8, i32 0, i32 9
  %10 = load ptr, ptr %9, align 8, !tbaa !54
  %11 = load ptr, ptr %4, align 8, !tbaa !22
  %12 = getelementptr inbounds nuw %struct.HysteresisContext, ptr %11, i32 0, i32 10
  %13 = load i32, ptr %12, align 8, !tbaa !74
  %14 = add nsw i32 %13, -1
  store i32 %14, ptr %12, align 8, !tbaa !74
  %15 = sext i32 %13 to i64
  %16 = getelementptr inbounds i32, ptr %10, i64 %15
  %17 = load i32, ptr %16, align 4, !tbaa !45
  store i32 %17, ptr %7, align 4, !tbaa !45
  %18 = load i32, ptr %7, align 4, !tbaa !45
  %19 = lshr i32 %18, 16
  %20 = load ptr, ptr %5, align 8, !tbaa !75
  store i32 %19, ptr %20, align 4, !tbaa !45
  %21 = load i32, ptr %7, align 4, !tbaa !45
  %22 = and i32 %21, 65535
  %23 = load ptr, ptr %6, align 8, !tbaa !75
  store i32 %22, ptr %23, align 4, !tbaa !45
  call void @llvm.lifetime.end.p0(i64 4, ptr %7) #9
  ret void
}

; Function Attrs: nounwind uwtable
define internal i32 @is_empty(ptr noundef %0) #0 {
  %2 = alloca ptr, align 8
  store ptr %0, ptr %2, align 8, !tbaa !22
  %3 = load ptr, ptr %2, align 8, !tbaa !22
  %4 = getelementptr inbounds nuw %struct.HysteresisContext, ptr %3, i32 0, i32 10
  %5 = load i32, ptr %4, align 8, !tbaa !74
  %6 = icmp slt i32 %5, 0
  %7 = zext i1 %6 to i32
  ret i32 %7
}

; Function Attrs: nounwind uwtable
define internal void @push(ptr noundef %0, i32 noundef %1, i32 noundef %2, i32 noundef %3) #0 {
  %5 = alloca ptr, align 8
  %6 = alloca i32, align 4
  %7 = alloca i32, align 4
  %8 = alloca i32, align 4
  store ptr %0, ptr %5, align 8, !tbaa !22
  store i32 %1, ptr %6, align 4, !tbaa !45
  store i32 %2, ptr %7, align 4, !tbaa !45
  store i32 %3, ptr %8, align 4, !tbaa !45
  %9 = load ptr, ptr %5, align 8, !tbaa !22
  %10 = getelementptr inbounds nuw %struct.HysteresisContext, ptr %9, i32 0, i32 8
  %11 = load ptr, ptr %10, align 8, !tbaa !53
  %12 = load i32, ptr %6, align 4, !tbaa !45
  %13 = load i32, ptr %7, align 4, !tbaa !45
  %14 = load i32, ptr %8, align 4, !tbaa !45
  %15 = mul nsw i32 %13, %14
  %16 = add nsw i32 %12, %15
  %17 = sext i32 %16 to i64
  %18 = getelementptr inbounds i8, ptr %11, i64 %17
  store i8 -1, ptr %18, align 1, !tbaa !58
  %19 = load i32, ptr %6, align 4, !tbaa !45
  %20 = trunc i32 %19 to i16
  %21 = zext i16 %20 to i32
  %22 = shl i32 %21, 16
  %23 = load i32, ptr %7, align 4, !tbaa !45
  %24 = trunc i32 %23 to i16
  %25 = zext i16 %24 to i32
  %26 = or i32 %22, %25
  %27 = load ptr, ptr %5, align 8, !tbaa !22
  %28 = getelementptr inbounds nuw %struct.HysteresisContext, ptr %27, i32 0, i32 9
  %29 = load ptr, ptr %28, align 8, !tbaa !54
  %30 = load ptr, ptr %5, align 8, !tbaa !22
  %31 = getelementptr inbounds nuw %struct.HysteresisContext, ptr %30, i32 0, i32 10
  %32 = load i32, ptr %31, align 8, !tbaa !74
  %33 = add nsw i32 %32, 1
  store i32 %33, ptr %31, align 8, !tbaa !74
  %34 = sext i32 %33 to i64
  %35 = getelementptr inbounds i32, ptr %29, i64 %34
  store i32 %26, ptr %35, align 4, !tbaa !45
  ret void
}

; Function Attrs: nounwind uwtable
define internal i32 @passed(ptr noundef %0, i32 noundef %1, i32 noundef %2, i32 noundef %3) #0 {
  %5 = alloca ptr, align 8
  %6 = alloca i32, align 4
  %7 = alloca i32, align 4
  %8 = alloca i32, align 4
  store ptr %0, ptr %5, align 8, !tbaa !22
  store i32 %1, ptr %6, align 4, !tbaa !45
  store i32 %2, ptr %7, align 4, !tbaa !45
  store i32 %3, ptr %8, align 4, !tbaa !45
  %9 = load ptr, ptr %5, align 8, !tbaa !22
  %10 = getelementptr inbounds nuw %struct.HysteresisContext, ptr %9, i32 0, i32 8
  %11 = load ptr, ptr %10, align 8, !tbaa !53
  %12 = load i32, ptr %6, align 4, !tbaa !45
  %13 = load i32, ptr %7, align 4, !tbaa !45
  %14 = load i32, ptr %8, align 4, !tbaa !45
  %15 = mul nsw i32 %13, %14
  %16 = add nsw i32 %12, %15
  %17 = sext i32 %16 to i64
  %18 = getelementptr inbounds i8, ptr %11, i64 %17
  %19 = load i8, ptr %18, align 1, !tbaa !58
  %20 = zext i8 %19 to i32
  ret i32 %20
}

; Function Attrs: nounwind uwtable
define internal void @hysteresis16(ptr noundef %0, ptr noundef %1, ptr noundef %2, ptr noundef %3, i64 noundef %4, i64 noundef %5, i64 noundef %6, i32 noundef %7, i32 noundef %8) #0 {
  %10 = alloca ptr, align 8
  %11 = alloca ptr, align 8
  %12 = alloca ptr, align 8
  %13 = alloca ptr, align 8
  %14 = alloca i64, align 8
  %15 = alloca i64, align 8
  %16 = alloca i64, align 8
  %17 = alloca i32, align 4
  %18 = alloca i32, align 4
  %19 = alloca ptr, align 8
  %20 = alloca ptr, align 8
  %21 = alloca ptr, align 8
  %22 = alloca i32, align 4
  %23 = alloca i32, align 4
  %24 = alloca i32, align 4
  %25 = alloca i32, align 4
  %26 = alloca i32, align 4
  %27 = alloca i32, align 4
  %28 = alloca i32, align 4
  %29 = alloca i32, align 4
  %30 = alloca i32, align 4
  %31 = alloca i32, align 4
  %32 = alloca i32, align 4
  store ptr %0, ptr %10, align 8, !tbaa !22
  store ptr %1, ptr %11, align 8, !tbaa !55
  store ptr %2, ptr %12, align 8, !tbaa !55
  store ptr %3, ptr %13, align 8, !tbaa !55
  store i64 %4, ptr %14, align 8, !tbaa !56
  store i64 %5, ptr %15, align 8, !tbaa !56
  store i64 %6, ptr %16, align 8, !tbaa !56
  store i32 %7, ptr %17, align 4, !tbaa !45
  store i32 %8, ptr %18, align 4, !tbaa !45
  call void @llvm.lifetime.start.p0(i64 8, ptr %19) #9
  %33 = load ptr, ptr %11, align 8, !tbaa !55
  store ptr %33, ptr %19, align 8, !tbaa !65
  call void @llvm.lifetime.start.p0(i64 8, ptr %20) #9
  %34 = load ptr, ptr %12, align 8, !tbaa !55
  store ptr %34, ptr %20, align 8, !tbaa !65
  call void @llvm.lifetime.start.p0(i64 8, ptr %21) #9
  %35 = load ptr, ptr %13, align 8, !tbaa !55
  store ptr %35, ptr %21, align 8, !tbaa !65
  call void @llvm.lifetime.start.p0(i64 4, ptr %22) #9
  %36 = load ptr, ptr %10, align 8, !tbaa !22
  %37 = getelementptr inbounds nuw %struct.HysteresisContext, ptr %36, i32 0, i32 3
  %38 = load i32, ptr %37, align 4, !tbaa !57
  store i32 %38, ptr %22, align 4, !tbaa !45
  call void @llvm.lifetime.start.p0(i64 4, ptr %23) #9
  call void @llvm.lifetime.start.p0(i64 4, ptr %24) #9
  %39 = load i64, ptr %14, align 8, !tbaa !56
  %40 = sdiv i64 %39, 2
  store i64 %40, ptr %14, align 8, !tbaa !56
  %41 = load i64, ptr %15, align 8, !tbaa !56
  %42 = sdiv i64 %41, 2
  store i64 %42, ptr %15, align 8, !tbaa !56
  %43 = load i64, ptr %16, align 8, !tbaa !56
  %44 = sdiv i64 %43, 2
  store i64 %44, ptr %16, align 8, !tbaa !56
  store i32 0, ptr %24, align 4, !tbaa !45
  br label %45

45:                                               ; preds = %229, %9
  %46 = load i32, ptr %24, align 4, !tbaa !45
  %47 = load i32, ptr %18, align 4, !tbaa !45
  %48 = icmp slt i32 %46, %47
  br i1 %48, label %49, label %232

49:                                               ; preds = %45
  store i32 0, ptr %23, align 4, !tbaa !45
  br label %50

50:                                               ; preds = %225, %49
  %51 = load i32, ptr %23, align 4, !tbaa !45
  %52 = load i32, ptr %17, align 4, !tbaa !45
  %53 = icmp slt i32 %51, %52
  br i1 %53, label %54, label %228

54:                                               ; preds = %50
  %55 = load ptr, ptr %19, align 8, !tbaa !65
  %56 = load i32, ptr %23, align 4, !tbaa !45
  %57 = sext i32 %56 to i64
  %58 = load i32, ptr %24, align 4, !tbaa !45
  %59 = sext i32 %58 to i64
  %60 = load i64, ptr %14, align 8, !tbaa !56
  %61 = mul nsw i64 %59, %60
  %62 = add nsw i64 %57, %61
  %63 = getelementptr inbounds i16, ptr %55, i64 %62
  %64 = load i16, ptr %63, align 2, !tbaa !67
  %65 = zext i16 %64 to i32
  %66 = load i32, ptr %22, align 4, !tbaa !45
  %67 = icmp sgt i32 %65, %66
  br i1 %67, label %68, label %224

68:                                               ; preds = %54
  %69 = load ptr, ptr %20, align 8, !tbaa !65
  %70 = load i32, ptr %23, align 4, !tbaa !45
  %71 = sext i32 %70 to i64
  %72 = load i32, ptr %24, align 4, !tbaa !45
  %73 = sext i32 %72 to i64
  %74 = load i64, ptr %15, align 8, !tbaa !56
  %75 = mul nsw i64 %73, %74
  %76 = add nsw i64 %71, %75
  %77 = getelementptr inbounds i16, ptr %69, i64 %76
  %78 = load i16, ptr %77, align 2, !tbaa !67
  %79 = zext i16 %78 to i32
  %80 = load i32, ptr %22, align 4, !tbaa !45
  %81 = icmp sgt i32 %79, %80
  br i1 %81, label %82, label %224

82:                                               ; preds = %68
  %83 = load ptr, ptr %10, align 8, !tbaa !22
  %84 = load i32, ptr %23, align 4, !tbaa !45
  %85 = load i32, ptr %24, align 4, !tbaa !45
  %86 = load i32, ptr %17, align 4, !tbaa !45
  %87 = call i32 @passed(ptr noundef %83, i32 noundef %84, i32 noundef %85, i32 noundef %86)
  %88 = icmp ne i32 %87, 0
  br i1 %88, label %224, label %89

89:                                               ; preds = %82
  call void @llvm.lifetime.start.p0(i64 4, ptr %25) #9
  call void @llvm.lifetime.start.p0(i64 4, ptr %26) #9
  %90 = load ptr, ptr %20, align 8, !tbaa !65
  %91 = load i32, ptr %23, align 4, !tbaa !45
  %92 = sext i32 %91 to i64
  %93 = load i32, ptr %24, align 4, !tbaa !45
  %94 = sext i32 %93 to i64
  %95 = load i64, ptr %15, align 8, !tbaa !56
  %96 = mul nsw i64 %94, %95
  %97 = add nsw i64 %92, %96
  %98 = getelementptr inbounds i16, ptr %90, i64 %97
  %99 = load i16, ptr %98, align 2, !tbaa !67
  %100 = load ptr, ptr %21, align 8, !tbaa !65
  %101 = load i32, ptr %23, align 4, !tbaa !45
  %102 = sext i32 %101 to i64
  %103 = load i32, ptr %24, align 4, !tbaa !45
  %104 = sext i32 %103 to i64
  %105 = load i64, ptr %16, align 8, !tbaa !56
  %106 = mul nsw i64 %104, %105
  %107 = add nsw i64 %102, %106
  %108 = getelementptr inbounds i16, ptr %100, i64 %107
  store i16 %99, ptr %108, align 2, !tbaa !67
  %109 = load ptr, ptr %10, align 8, !tbaa !22
  %110 = load i32, ptr %23, align 4, !tbaa !45
  %111 = load i32, ptr %24, align 4, !tbaa !45
  %112 = load i32, ptr %17, align 4, !tbaa !45
  call void @push(ptr noundef %109, i32 noundef %110, i32 noundef %111, i32 noundef %112)
  br label %113

113:                                              ; preds = %222, %89
  %114 = load ptr, ptr %10, align 8, !tbaa !22
  %115 = call i32 @is_empty(ptr noundef %114)
  %116 = icmp ne i32 %115, 0
  %117 = xor i1 %116, true
  br i1 %117, label %118, label %223

118:                                              ; preds = %113
  call void @llvm.lifetime.start.p0(i64 4, ptr %27) #9
  call void @llvm.lifetime.start.p0(i64 4, ptr %28) #9
  call void @llvm.lifetime.start.p0(i64 4, ptr %29) #9
  call void @llvm.lifetime.start.p0(i64 4, ptr %30) #9
  call void @llvm.lifetime.start.p0(i64 4, ptr %31) #9
  call void @llvm.lifetime.start.p0(i64 4, ptr %32) #9
  %119 = load ptr, ptr %10, align 8, !tbaa !22
  call void @pop(ptr noundef %119, ptr noundef %25, ptr noundef %26)
  %120 = load i32, ptr %25, align 4, !tbaa !45
  %121 = icmp sgt i32 %120, 0
  br i1 %121, label %122, label %125

122:                                              ; preds = %118
  %123 = load i32, ptr %25, align 4, !tbaa !45
  %124 = sub nsw i32 %123, 1
  br label %126

125:                                              ; preds = %118
  br label %126

126:                                              ; preds = %125, %122
  %127 = phi i32 [ %124, %122 ], [ 0, %125 ]
  store i32 %127, ptr %27, align 4, !tbaa !45
  %128 = load i32, ptr %25, align 4, !tbaa !45
  %129 = load i32, ptr %17, align 4, !tbaa !45
  %130 = sub nsw i32 %129, 1
  %131 = icmp slt i32 %128, %130
  br i1 %131, label %132, label %135

132:                                              ; preds = %126
  %133 = load i32, ptr %25, align 4, !tbaa !45
  %134 = add nsw i32 %133, 1
  br label %137

135:                                              ; preds = %126
  %136 = load i32, ptr %25, align 4, !tbaa !45
  br label %137

137:                                              ; preds = %135, %132
  %138 = phi i32 [ %134, %132 ], [ %136, %135 ]
  store i32 %138, ptr %28, align 4, !tbaa !45
  %139 = load i32, ptr %26, align 4, !tbaa !45
  %140 = icmp sgt i32 %139, 0
  br i1 %140, label %141, label %144

141:                                              ; preds = %137
  %142 = load i32, ptr %26, align 4, !tbaa !45
  %143 = sub nsw i32 %142, 1
  br label %145

144:                                              ; preds = %137
  br label %145

145:                                              ; preds = %144, %141
  %146 = phi i32 [ %143, %141 ], [ 0, %144 ]
  store i32 %146, ptr %29, align 4, !tbaa !45
  %147 = load i32, ptr %26, align 4, !tbaa !45
  %148 = load i32, ptr %18, align 4, !tbaa !45
  %149 = sub nsw i32 %148, 1
  %150 = icmp slt i32 %147, %149
  br i1 %150, label %151, label %154

151:                                              ; preds = %145
  %152 = load i32, ptr %26, align 4, !tbaa !45
  %153 = add nsw i32 %152, 1
  br label %156

154:                                              ; preds = %145
  %155 = load i32, ptr %26, align 4, !tbaa !45
  br label %156

156:                                              ; preds = %154, %151
  %157 = phi i32 [ %153, %151 ], [ %155, %154 ]
  store i32 %157, ptr %30, align 4, !tbaa !45
  %158 = load i32, ptr %29, align 4, !tbaa !45
  store i32 %158, ptr %31, align 4, !tbaa !45
  br label %159

159:                                              ; preds = %219, %156
  %160 = load i32, ptr %31, align 4, !tbaa !45
  %161 = load i32, ptr %30, align 4, !tbaa !45
  %162 = icmp sle i32 %160, %161
  br i1 %162, label %163, label %222

163:                                              ; preds = %159
  %164 = load i32, ptr %27, align 4, !tbaa !45
  store i32 %164, ptr %32, align 4, !tbaa !45
  br label %165

165:                                              ; preds = %215, %163
  %166 = load i32, ptr %32, align 4, !tbaa !45
  %167 = load i32, ptr %28, align 4, !tbaa !45
  %168 = icmp sle i32 %166, %167
  br i1 %168, label %169, label %218

169:                                              ; preds = %165
  %170 = load ptr, ptr %20, align 8, !tbaa !65
  %171 = load i32, ptr %32, align 4, !tbaa !45
  %172 = sext i32 %171 to i64
  %173 = load i32, ptr %31, align 4, !tbaa !45
  %174 = sext i32 %173 to i64
  %175 = load i64, ptr %15, align 8, !tbaa !56
  %176 = mul nsw i64 %174, %175
  %177 = add nsw i64 %172, %176
  %178 = getelementptr inbounds i16, ptr %170, i64 %177
  %179 = load i16, ptr %178, align 2, !tbaa !67
  %180 = zext i16 %179 to i32
  %181 = load i32, ptr %22, align 4, !tbaa !45
  %182 = icmp sgt i32 %180, %181
  br i1 %182, label %183, label %214

183:                                              ; preds = %169
  %184 = load ptr, ptr %10, align 8, !tbaa !22
  %185 = load i32, ptr %32, align 4, !tbaa !45
  %186 = load i32, ptr %31, align 4, !tbaa !45
  %187 = load i32, ptr %17, align 4, !tbaa !45
  %188 = call i32 @passed(ptr noundef %184, i32 noundef %185, i32 noundef %186, i32 noundef %187)
  %189 = icmp ne i32 %188, 0
  br i1 %189, label %214, label %190

190:                                              ; preds = %183
  %191 = load ptr, ptr %20, align 8, !tbaa !65
  %192 = load i32, ptr %32, align 4, !tbaa !45
  %193 = sext i32 %192 to i64
  %194 = load i32, ptr %31, align 4, !tbaa !45
  %195 = sext i32 %194 to i64
  %196 = load i64, ptr %15, align 8, !tbaa !56
  %197 = mul nsw i64 %195, %196
  %198 = add nsw i64 %193, %197
  %199 = getelementptr inbounds i16, ptr %191, i64 %198
  %200 = load i16, ptr %199, align 2, !tbaa !67
  %201 = load ptr, ptr %21, align 8, !tbaa !65
  %202 = load i32, ptr %32, align 4, !tbaa !45
  %203 = sext i32 %202 to i64
  %204 = load i32, ptr %31, align 4, !tbaa !45
  %205 = sext i32 %204 to i64
  %206 = load i64, ptr %16, align 8, !tbaa !56
  %207 = mul nsw i64 %205, %206
  %208 = add nsw i64 %203, %207
  %209 = getelementptr inbounds i16, ptr %201, i64 %208
  store i16 %200, ptr %209, align 2, !tbaa !67
  %210 = load ptr, ptr %10, align 8, !tbaa !22
  %211 = load i32, ptr %32, align 4, !tbaa !45
  %212 = load i32, ptr %31, align 4, !tbaa !45
  %213 = load i32, ptr %17, align 4, !tbaa !45
  call void @push(ptr noundef %210, i32 noundef %211, i32 noundef %212, i32 noundef %213)
  br label %214

214:                                              ; preds = %190, %183, %169
  br label %215

215:                                              ; preds = %214
  %216 = load i32, ptr %32, align 4, !tbaa !45
  %217 = add nsw i32 %216, 1
  store i32 %217, ptr %32, align 4, !tbaa !45
  br label %165, !llvm.loop !69

218:                                              ; preds = %165
  br label %219

219:                                              ; preds = %218
  %220 = load i32, ptr %31, align 4, !tbaa !45
  %221 = add nsw i32 %220, 1
  store i32 %221, ptr %31, align 4, !tbaa !45
  br label %159, !llvm.loop !70

222:                                              ; preds = %159
  call void @llvm.lifetime.end.p0(i64 4, ptr %32) #9
  call void @llvm.lifetime.end.p0(i64 4, ptr %31) #9
  call void @llvm.lifetime.end.p0(i64 4, ptr %30) #9
  call void @llvm.lifetime.end.p0(i64 4, ptr %29) #9
  call void @llvm.lifetime.end.p0(i64 4, ptr %28) #9
  call void @llvm.lifetime.end.p0(i64 4, ptr %27) #9
  br label %113, !llvm.loop !71

223:                                              ; preds = %113
  call void @llvm.lifetime.end.p0(i64 4, ptr %26) #9
  call void @llvm.lifetime.end.p0(i64 4, ptr %25) #9
  br label %224

224:                                              ; preds = %223, %82, %68, %54
  br label %225

225:                                              ; preds = %224
  %226 = load i32, ptr %23, align 4, !tbaa !45
  %227 = add nsw i32 %226, 1
  store i32 %227, ptr %23, align 4, !tbaa !45
  br label %50, !llvm.loop !72

228:                                              ; preds = %50
  br label %229

229:                                              ; preds = %228
  %230 = load i32, ptr %24, align 4, !tbaa !45
  %231 = add nsw i32 %230, 1
  store i32 %231, ptr %24, align 4, !tbaa !45
  br label %45, !llvm.loop !73

232:                                              ; preds = %45
  call void @llvm.lifetime.end.p0(i64 4, ptr %24) #9
  call void @llvm.lifetime.end.p0(i64 4, ptr %23) #9
  call void @llvm.lifetime.end.p0(i64 4, ptr %22) #9
  call void @llvm.lifetime.end.p0(i64 8, ptr %21) #9
  call void @llvm.lifetime.end.p0(i64 8, ptr %20) #9
  call void @llvm.lifetime.end.p0(i64 8, ptr %19) #9
  ret void
}