; Function Attrs: nofree norecurse nosync nounwind memory(readwrite, inaccessiblemem: none) uwtable
define internal void @hysteresis16(ptr noundef captures(none) %0, ptr noundef readonly captures(none) %1, ptr noundef readonly captures(none) %2, ptr noundef writeonly captures(none) %3, i64 noundef %4, i64 noundef %5, i64 noundef %6, i32 noundef %7, i32 noundef %8) #4 {
  %10 = getelementptr inbounds nuw i8, ptr %0, i64 108
  %11 = load i32, ptr %10, align 4, !tbaa !48
  %12 = sdiv i64 %4, 2
  %13 = sdiv i64 %5, 2
  %14 = sdiv i64 %6, 2
  %15 = icmp sgt i32 %8, 0
  br i1 %15, label %.preheader85.lr.ph, label %._crit_edge98

.preheader85.lr.ph:                               ; preds = %9
  %16 = icmp sgt i32 %7, 0
  %17 = getelementptr i8, ptr %0, i64 152
  %18 = getelementptr inbounds nuw i8, ptr %0, i64 160
  %19 = getelementptr inbounds nuw i8, ptr %0, i64 168
  %20 = add nsw i32 %7, -1
  %21 = add nsw i32 %8, -1
  br i1 %16, label %.preheader85.us.preheader, label %._crit_edge98

.preheader85.us.preheader:                        ; preds = %.preheader85.lr.ph
  %22 = zext nneg i32 %7 to i64
  %wide.trip.count120 = zext nneg i32 %8 to i64
  br label %.preheader85.us

.preheader85.us:                                  ; preds = %.preheader85.us.preheader, %._crit_edge96.us
  %indvars.iv117 = phi i64 [ 0, %.preheader85.us.preheader ], [ %indvars.iv.next118, %._crit_edge96.us ]
  %23 = mul nsw i64 %12, %indvars.iv117
  %24 = getelementptr i16, ptr %1, i64 %23
  %25 = mul nsw i64 %13, %indvars.iv117
  %26 = getelementptr i16, ptr %2, i64 %25
  %27 = mul nuw nsw i64 %indvars.iv117, %22
  %28 = mul nsw i64 %14, %indvars.iv117
  %29 = getelementptr i16, ptr %3, i64 %28
  %30 = trunc nuw nsw i64 %indvars.iv117 to i32
  %31 = and i32 %30, 65535
  br label %32

32:                                               ; preds = %.preheader85.us, %.loopexit84.us
  %indvars.iv112 = phi i64 [ 0, %.preheader85.us ], [ %indvars.iv.next113, %.loopexit84.us ]
  %33 = getelementptr i16, ptr %24, i64 %indvars.iv112
  %34 = load i16, ptr %33, align 2, !tbaa !57
  %35 = zext i16 %34 to i32
  %36 = icmp slt i32 %11, %35
  br i1 %36, label %37, label %.loopexit84.us

37:                                               ; preds = %32
  %38 = getelementptr i16, ptr %26, i64 %indvars.iv112
  %39 = load i16, ptr %38, align 2, !tbaa !57
  %40 = zext i16 %39 to i32
  %41 = icmp slt i32 %11, %40
  br i1 %41, label %42, label %.loopexit84.us

42:                                               ; preds = %37
  %.val.us = load ptr, ptr %17, align 8, !tbaa !46
  %43 = getelementptr inbounds nuw i8, ptr %.val.us, i64 %indvars.iv112
  %44 = getelementptr inbounds nuw i8, ptr %43, i64 %27
  %45 = load i8, ptr %44, align 1, !tbaa !49
  %.not.us = icmp eq i8 %45, 0
  br i1 %.not.us, label %46, label %.loopexit84.us

46:                                               ; preds = %42
  %47 = getelementptr i16, ptr %29, i64 %indvars.iv112
  store i16 %39, ptr %47, align 2, !tbaa !57
  store i8 -1, ptr %44, align 1, !tbaa !49
  %48 = trunc nuw nsw i64 %indvars.iv112 to i32
  %49 = shl i32 %48, 16
  %50 = or disjoint i32 %49, %31
  %51 = load ptr, ptr %18, align 8, !tbaa !47
  %52 = load i32, ptr %19, align 8, !tbaa !50
  %53 = add nsw i32 %52, 1
  store i32 %53, ptr %19, align 8, !tbaa !50
  %54 = sext i32 %53 to i64
  %55 = getelementptr inbounds i32, ptr %51, i64 %54
  store i32 %50, ptr %55, align 4, !tbaa !40
  %.val8290.us = load i32, ptr %19, align 8, !tbaa !50
  %.not7791.us = icmp sgt i32 %.val8290.us, -1
  br i1 %.not7791.us, label %.lr.ph.us, label %.loopexit84.us

.loopexit84.us:                                   ; preds = %.loopexit.us, %46, %42, %37, %32
  %indvars.iv.next113 = add nuw nsw i64 %indvars.iv112, 1
  %exitcond116.not = icmp eq i64 %indvars.iv.next113, %22
  br i1 %exitcond116.not, label %._crit_edge96.us, label %32, !llvm.loop !59

.lr.ph.us:                                        ; preds = %46, %.loopexit.us
  %56 = phi ptr [ %101, %.loopexit.us ], [ %51, %46 ]
  %.val8292.us = phi i32 [ %.val82.us, %.loopexit.us ], [ %.val8290.us, %46 ]
  %57 = add nsw i32 %.val8292.us, -1
  store i32 %57, ptr %19, align 8, !tbaa !50
  %58 = zext nneg i32 %.val8292.us to i64
  %59 = getelementptr inbounds nuw i32, ptr %56, i64 %58
  %60 = load i32, ptr %59, align 4, !tbaa !40
  %61 = lshr i32 %60, 16
  %62 = and i32 %60, 65535
  %63 = tail call i32 @llvm.usub.sat.i32(i32 %61, i32 1)
  %64 = icmp slt i32 %61, %20
  %65 = zext i1 %64 to i32
  %66 = tail call i32 @llvm.usub.sat.i32(i32 %62, i32 1)
  %67 = icmp slt i32 %62, %21
  %68 = zext i1 %67 to i32
  %69 = add nuw nsw i32 %62, %68
  %.not7888.us = icmp samesign ugt i32 %66, %69
  %70 = add nuw nsw i32 %61, %65
  %.not7986.us = icmp samesign ugt i32 %63, %70
  %or.cond = select i1 %.not7888.us, i1 true, i1 %.not7986.us
  br i1 %or.cond, label %.loopexit.us, label %.preheader.us99.preheader

71:                                               ; preds = %.preheader.us99, %91
  %72 = phi ptr [ %93, %.preheader.us99 ], [ %92, %91 ]
  %indvars.iv = phi i64 [ %102, %.preheader.us99 ], [ %indvars.iv.next, %91 ]
  %73 = getelementptr i16, ptr %95, i64 %indvars.iv
  %74 = load i16, ptr %73, align 2, !tbaa !57
  %75 = zext i16 %74 to i32
  %76 = icmp slt i32 %11, %75
  br i1 %76, label %77, label %91

77:                                               ; preds = %71
  %.val81.us = load ptr, ptr %17, align 8, !tbaa !46
  %78 = getelementptr inbounds nuw i8, ptr %.val81.us, i64 %indvars.iv
  %79 = getelementptr inbounds nuw i8, ptr %78, i64 %96
  %80 = load i8, ptr %79, align 1, !tbaa !49
  %.not80.us = icmp eq i8 %80, 0
  br i1 %.not80.us, label %81, label %91

81:                                               ; preds = %77
  %82 = getelementptr i16, ptr %98, i64 %indvars.iv
  store i16 %74, ptr %82, align 2, !tbaa !57
  store i8 -1, ptr %79, align 1, !tbaa !49
  %83 = trunc nuw nsw i64 %indvars.iv to i32
  %84 = shl i32 %83, 16
  %85 = or disjoint i32 %84, %100
  %86 = load ptr, ptr %18, align 8, !tbaa !47
  %87 = load i32, ptr %19, align 8, !tbaa !50
  %88 = add nsw i32 %87, 1
  store i32 %88, ptr %19, align 8, !tbaa !50
  %89 = sext i32 %88 to i64
  %90 = getelementptr inbounds i32, ptr %86, i64 %89
  store i32 %85, ptr %90, align 4, !tbaa !40
  br label %91

91:                                               ; preds = %81, %77, %71
  %92 = phi ptr [ %86, %81 ], [ %72, %77 ], [ %72, %71 ]
  %indvars.iv.next = add nuw nsw i64 %indvars.iv, 1
  %exitcond.not = icmp eq i64 %indvars.iv.next, %wide.trip.count
  br i1 %exitcond.not, label %._crit_edge.us, label %71, !llvm.loop !60

.preheader.us99:                                  ; preds = %.preheader.us99.preheader, %._crit_edge.us
  %93 = phi ptr [ %56, %.preheader.us99.preheader ], [ %92, %._crit_edge.us ]
  %indvars.iv107 = phi i64 [ %105, %.preheader.us99.preheader ], [ %indvars.iv.next108, %._crit_edge.us ]
  %94 = mul nsw i64 %13, %indvars.iv107
  %95 = getelementptr i16, ptr %2, i64 %94
  %96 = mul nuw nsw i64 %indvars.iv107, %22
  %97 = mul nsw i64 %14, %indvars.iv107
  %98 = getelementptr i16, ptr %3, i64 %97
  %99 = trunc nuw nsw i64 %indvars.iv107 to i32
  %100 = and i32 %99, 65535
  br label %71

.loopexit.us.loopexit104:                         ; preds = %._crit_edge.us
  %.val82.us.pre = load i32, ptr %19, align 8, !tbaa !50
  br label %.loopexit.us

.loopexit.us:                                     ; preds = %.loopexit.us.loopexit104, %.lr.ph.us
  %.val82.us = phi i32 [ %.val82.us.pre, %.loopexit.us.loopexit104 ], [ %57, %.lr.ph.us ]
  %101 = phi ptr [ %92, %.loopexit.us.loopexit104 ], [ %56, %.lr.ph.us ]
  %.not77.us = icmp sgt i32 %.val82.us, -1
  br i1 %.not77.us, label %.lr.ph.us, label %.loopexit84.us, !llvm.loop !61

._crit_edge.us:                                   ; preds = %91
  %indvars.iv.next108 = add nuw nsw i64 %indvars.iv107, 1
  %exitcond111.not = icmp eq i64 %indvars.iv.next108, %wide.trip.count110
  br i1 %exitcond111.not, label %.loopexit.us.loopexit104, label %.preheader.us99, !llvm.loop !62

.preheader.us99.preheader:                        ; preds = %.lr.ph.us
  %102 = zext nneg i32 %63 to i64
  %103 = add nuw nsw i32 %61, 1
  %104 = add nuw nsw i32 %103, %65
  %105 = zext nneg i32 %66 to i64
  %106 = select i1 %67, i32 2, i32 1
  %107 = add nuw nsw i32 %106, %62
  %wide.trip.count110 = zext nneg i32 %107 to i64
  %wide.trip.count = zext nneg i32 %104 to i64
  br label %.preheader.us99

._crit_edge96.us:                                 ; preds = %.loopexit84.us
  %indvars.iv.next118 = add nuw nsw i64 %indvars.iv117, 1
  %exitcond121.not = icmp eq i64 %indvars.iv.next118, %wide.trip.count120
  br i1 %exitcond121.not, label %._crit_edge98, label %.preheader85.us, !llvm.loop !63

._crit_edge98:                                    ; preds = %._crit_edge96.us, %.preheader85.lr.ph, %9
  ret void
}